; Function Attrs: nofree norecurse nosync nounwind memory(readwrite, inaccessiblemem: none) uwtable
define range(i32 0, 2147483647) i32 @Abc_NtkCutCostMux(ptr noundef readonly captures(none) %0, ptr noundef readonly captures(none) %1) local_unnamed_addr #2 {
  %3 = getelementptr inbounds nuw i8, ptr %1, i64 28
  %4 = load i64, ptr %3, align 4
  %5 = trunc i64 %4 to i32
  %6 = icmp ult i32 %5, 50331648
  br i1 %6, label %56, label %7

7:                                                ; preds = %2
  %.mask = and i32 %5, -16777216
  %8 = icmp eq i32 %.mask, 50331648
  br i1 %8, label %9, label %53

9:                                                ; preds = %7
  %10 = getelementptr i8, ptr %1, i64 16
  %.val = load i32, ptr %10, align 4, !tbaa !5
  %11 = getelementptr inbounds nuw i8, ptr %0, i64 152
  %12 = load ptr, ptr %11, align 8, !tbaa !11
  %13 = getelementptr inbounds nuw i8, ptr %0, i64 1064
  %14 = lshr i64 %4, 24
  %15 = and i64 %14, 255
  %16 = getelementptr inbounds nuw [16 x ptr], ptr %13, i64 0, i64 %15
  %17 = load ptr, ptr %16, align 8, !tbaa !28
  %.not.i.i.i = icmp eq ptr %17, null
  br i1 %.not.i.i.i, label %If_CutTruthWR.exit.i.i, label %18

18:                                               ; preds = %9
  %19 = ashr i32 %.val, 1
  %20 = getelementptr inbounds nuw i8, ptr %17, i64 24
  %21 = load ptr, ptr %20, align 8, !tbaa !29
  %22 = getelementptr inbounds nuw i8, ptr %17, i64 8
  %23 = load i32, ptr %22, align 8, !tbaa !32
  %24 = ashr i32 %19, %23
  %25 = sext i32 %24 to i64
  %26 = getelementptr inbounds ptr, ptr %21, i64 %25
  %27 = load ptr, ptr %26, align 8, !tbaa !33
  %28 = load i32, ptr %17, align 8, !tbaa !34
  %29 = getelementptr inbounds nuw i8, ptr %17, i64 12
  %30 = load i32, ptr %29, align 4, !tbaa !35
  %31 = and i32 %30, %19
  %32 = mul nsw i32 %31, %28
  %33 = sext i32 %32 to i64
  %34 = getelementptr inbounds i64, ptr %27, i64 %33
  br label %If_CutTruthWR.exit.i.i

If_CutTruthWR.exit.i.i:                           ; preds = %18, %9
  %35 = phi ptr [ %34, %18 ], [ null, %9 ]
  %36 = getelementptr inbounds nuw i8, ptr %0, i64 652
  %37 = getelementptr inbounds nuw [16 x i32], ptr %36, i64 0, i64 %15
  %38 = load i32, ptr %37, align 4, !tbaa !36
  %39 = and i32 %.val, 1
  %.not.i7.i.i = icmp eq i32 %39, 0
  %40 = icmp sgt i32 %38, 0
  br i1 %.not.i7.i.i, label %.preheader.i.i.i, label %.preheader14.i.i.i

.preheader14.i.i.i:                               ; preds = %If_CutTruthWR.exit.i.i
  br i1 %40, label %.lr.ph.preheader.i.i.i, label %If_CutTruth.exit

.lr.ph.preheader.i.i.i:                           ; preds = %.preheader14.i.i.i
  %wide.trip.count.i.i.i = zext nneg i32 %38 to i64
  br label %.lr.ph.i.i.i

.preheader.i.i.i:                                 ; preds = %If_CutTruthWR.exit.i.i
  br i1 %40, label %.lr.ph18.preheader.i.i.i, label %If_CutTruth.exit

.lr.ph18.preheader.i.i.i:                         ; preds = %.preheader.i.i.i
  %wide.trip.count24.i.i.i = zext nneg i32 %38 to i64
  br label %.lr.ph18.i.i.i

.lr.ph.i.i.i:                                     ; preds = %.lr.ph.i.i.i, %.lr.ph.preheader.i.i.i
  %indvars.iv.i.i.i = phi i64 [ 0, %.lr.ph.preheader.i.i.i ], [ %indvars.iv.next.i.i.i, %.lr.ph.i.i.i ]
  %41 = getelementptr inbounds nuw i64, ptr %35, i64 %indvars.iv.i.i.i
  %42 = load i64, ptr %41, align 8, !tbaa !37
  %43 = xor i64 %42, -1
  %44 = getelementptr inbounds nuw i64, ptr %12, i64 %indvars.iv.i.i.i
  store i64 %43, ptr %44, align 8, !tbaa !37
  %indvars.iv.next.i.i.i = add nuw nsw i64 %indvars.iv.i.i.i, 1
  %exitcond.not.i.i.i = icmp eq i64 %indvars.iv.next.i.i.i, %wide.trip.count.i.i.i
  br i1 %exitcond.not.i.i.i, label %If_CutTruth.exit, label %.lr.ph.i.i.i, !llvm.loop !39

.lr.ph18.i.i.i:                                   ; preds = %.lr.ph18.i.i.i, %.lr.ph18.preheader.i.i.i
  %indvars.iv21.i.i.i = phi i64 [ 0, %.lr.ph18.preheader.i.i.i ], [ %indvars.iv.next22.i.i.i, %.lr.ph18.i.i.i ]
  %45 = getelementptr inbounds nuw i64, ptr %35, i64 %indvars.iv21.i.i.i
  %46 = load i64, ptr %45, align 8, !tbaa !37
  %47 = getelementptr inbounds nuw i64, ptr %12, i64 %indvars.iv21.i.i.i
  store i64 %46, ptr %47, align 8, !tbaa !37
  %indvars.iv.next22.i.i.i = add nuw nsw i64 %indvars.iv21.i.i.i, 1
  %exitcond25.not.i.i.i = icmp eq i64 %indvars.iv.next22.i.i.i, %wide.trip.count24.i.i.i
  br i1 %exitcond25.not.i.i.i, label %If_CutTruth.exit, label %.lr.ph18.i.i.i, !llvm.loop !40

If_CutTruth.exit:                                 ; preds = %.lr.ph.i.i.i, %.lr.ph18.i.i.i, %.preheader14.i.i.i, %.preheader.i.i.i
  %48 = load i32, ptr %12, align 4, !tbaa !36
  %49 = and i32 %48, 255
  %50 = zext nneg i32 %49 to i64
  %51 = getelementptr inbounds nuw [256 x i8], ptr @Abc_NtkCutCostMux.uLookup, i64 0, i64 %50
  %52 = load i8, ptr %51, align 1, !tbaa !41
  %.not = icmp eq i8 %52, 0
  br i1 %.not, label %If_CutTruth.exit._crit_edge, label %56

If_CutTruth.exit._crit_edge:                      ; preds = %If_CutTruth.exit
  %.pre = load i64, ptr %3, align 4
  %.pre9 = trunc i64 %.pre to i32
  br label %53

53:                                               ; preds = %If_CutTruth.exit._crit_edge, %7
  %.pre-phi = phi i32 [ %.pre9, %If_CutTruth.exit._crit_edge ], [ %5, %7 ]
  %54 = lshr i32 %.pre-phi, 24
  %notmask = shl nsw i32 -1, %54
  %55 = xor i32 %notmask, -1
  br label %56

56:                                               ; preds = %If_CutTruth.exit, %2, %53
  %.0 = phi i32 [ %55, %53 ], [ 1, %2 ], [ 1, %If_CutTruth.exit ]
  ret i32 %.0
}